Certificate:
    Data:
        Version: 3 (0x2)
        Serial Number: 2553749446293903488 (0x2370bd974fb2d880)
    Signature Algorithm: sha1WithRSAEncryption
        Issuer: C=US, O=Google Inc, CN=Google Internet Authority G2
        Validity
            Not Before: Jun  3 10:15:27 2015 GMT
            Not After : Sep  1 00:00:00 2015 GMT
        Subject: C=US, ST=California, L=Mountain View, O=Google Inc, CN=*.google.com
        Subject Public Key Info:
            Public Key Algorithm: id-ecPublicKey
                Public-Key: (256 bit)
                pub: 
                    04:74:94:75:b5:92:ab:3e:ae:75:cb:6c:06:ad:fe:
                    1e:5c:dd:aa:7d:9f:6e:2c:65:d6:ce:b5:97:2f:95:
                    97:1e:c1:8a:0a:ae:4e:58:b0:60:bf:21:95:62:cc:
                    c7:b3:45:88:4f:15:43:22:76:0c:ee:6b:8a:41:de:
                    d9:af:0b:49:7a
                ASN1 OID: prime256v1
        X509v3 extensions:
            X509v3 Extended Key Usage: 
                TLS Web Server Authentication, TLS Web Client Authentication
            X509v3 Subject Alternative Name: 
                DNS:*.google.com, DNS:*.android.com, DNS:*.appengine.google.com, DNS:*.cloud.google.com, DNS:*.google-analytics.com, DNS:*.google.ca, DNS:*.google.cl, DNS:*.google.co.in, DNS:*.google.co.jp, DNS:*.google.co.uk, DNS:*.google.com.ar, DNS:*.google.com.au, DNS:*.google.com.br, DNS:*.google.com.co, DNS:*.google.com.mx, DNS:*.google.com.tr, DNS:*.google.com.vn, DNS:*.google.de, DNS:*.google.es, DNS:*.google.fr, DNS:*.google.hu, DNS:*.google.it, DNS:*.google.nl, DNS:*.google.pl, DNS:*.google.pt, DNS:*.googleadapis.com, DNS:*.googleapis.cn, DNS:*.googlecommerce.com, DNS:*.googlevideo.com, DNS:*.gstatic.cn, DNS:*.gstatic.com, DNS:*.gvt1.com, DNS:*.gvt2.com, DNS:*.metric.gstatic.com, DNS:*.urchin.com, DNS:*.url.google.com, DNS:*.youtube-nocookie.com, DNS:*.youtube.com, DNS:*.youtubeeducation.com, DNS:*.ytimg.com, DNS:android.com, DNS:g.co, DNS:goo.gl, DNS:google-analytics.com, DNS:google.com, DNS:googlecommerce.com, DNS:urchin.com, DNS:youtu.be, DNS:youtube.com, DNS:youtubeeducation.com
            X509v3 Key Usage: 
                Digital Signature
            Authority Information Access: 
                CA Issuers - URI:http://pki.google.com/GIAG2.crt
                OCSP - URI:http://clients1.google.com/ocsp

            X509v3 Subject Key Identifier: 
                B2:05:F0:0E:45:DC:1C:E1:C0:75:7B:12:F9:11:43:39:F7:87:E8:9E
            X509v3 Basic Constraints: critical
                CA:FALSE
            X509v3 Authority Key Identifier: 
                keyid:4A:DD:06:16:1B:BC:F6:68:B5:76:F5:81:B6:BB:62:1A:BA:5A:81:2F

            X509v3 Certificate Policies: 
                Policy: 1.3.6.1.4.1.11129.2.5.1

            X509v3 CRL Distribution Points: 

                Full Name:
                  URI:http://pki.google.com/GIAG2.crl

    Signature Algorithm: sha1WithRSAEncryption
         25:9a:c9:04:41:6f:27:43:59:b0:78:f3:47:37:3f:6e:13:09:
         d0:4b:24:60:dd:05:95:88:d7:22:b3:9a:af:43:14:ff:de:cf:
         c6:f4:39:5a:32:02:cf:94:e8:0b:e2:f9:a7:eb:6d:21:95:cc:
         70:00:a9:80:81:cc:ac:70:90:4c:a3:26:96:8d:9c:12:de:5d:
         ff:b7:05:dd:ad:59:e7:03:29:d4:7d:da:59:fa:a4:9a:d3:dd:
         5f:4f:15:cf:ba:d7:cf:0f:26:42:63:90:a8:c6:d8:47:f7:ec:
         2e:7b:e3:3a:ae:1d:4e:f6:95:5a:92:55:60:27:d0:b4:35:b3:
         80:a1:45:6e:0e:a4:0c:23:72:db:b5:9b:8a:3e:dd:6f:96:a7:
         36:73:ca:48:d8:a9:7e:c1:8e:23:0e:5b:0a:52:bb:64:ce:7c:
         fc:47:52:be:16:ed:35:ee:1f:2f:4d:86:7b:19:d2:0c:f9:30:
         79:32:3a:3c:4d:20:ff:9a:33:7f:1a:55:27:e5:c4:b8:d3:07:
         7e:d5:85:8e:7c:0d:15:44:d6:b6:12:f1:c5:10:8f:b3:c9:7b:
         75:49:11:9a:27:80:56:ab:3f:54:5d:be:64:af:b5:4d:19:f3:
         57:72:df:5c:ec:b5:06:c6:1f:ab:7d:08:43:af:a1:53:22:72:
         93:11:06:36
-----BEGIN CERTIFICATE-----
MIIGxTCCBa2gAwIBAgIII3C9l0+y2IAwDQYJKoZIhvcNAQEFBQAwSTELMAkGA1UE
BhMCVVMxEzARBgNVBAoTCkdvb2dsZSBJbmMxJTAjBgNVBAMTHEdvb2dsZSBJbnRl
cm5ldCBBdXRob3JpdHkgRzIwHhcNMTUwNjAzMTAxNTI3WhcNMTUwOTAxMDAwMDAw
WjBmMQswCQYDVQQGEwJVUzETMBEGA1UECAwKQ2FsaWZvcm5pYTEWMBQGA1UEBwwN
TW91bnRhaW4gVmlldzETMBEGA1UECgwKR29vZ2xlIEluYzEVMBMGA1UEAwwMKi5n
b29nbGUuY29tMFkwEwYHKoZIzj0CAQYIKoZIzj0DAQcDQgAEdJR1tZKrPq51y2wG
rf4eXN2qfZ9uLGXWzrWXL5WXHsGKCq5OWLBgvyGVYszHs0WITxVDInYM7muKQd7Z
rwtJeqOCBF0wggRZMB0GA1UdJQQWMBQGCCsGAQUFBwMBBggrBgEFBQcDAjCCAyYG
A1UdEQSCAx0wggMZggwqLmdvb2dsZS5jb22CDSouYW5kcm9pZC5jb22CFiouYXBw
ZW5naW5lLmdvb2dsZS5jb22CEiouY2xvdWQuZ29vZ2xlLmNvbYIWKi5nb29nbGUt
YW5hbHl0aWNzLmNvbYILKi5nb29nbGUuY2GCCyouZ29vZ2xlLmNsgg4qLmdvb2ds
ZS5jby5pboIOKi5nb29nbGUuY28uanCCDiouZ29vZ2xlLmNvLnVrgg8qLmdvb2ds
ZS5jb20uYXKCDyouZ29vZ2xlLmNvbS5hdYIPKi5nb29nbGUuY29tLmJygg8qLmdv
b2dsZS5jb20uY2+CDyouZ29vZ2xlLmNvbS5teIIPKi5nb29nbGUuY29tLnRygg8q
Lmdvb2dsZS5jb20udm6CCyouZ29vZ2xlLmRlggsqLmdvb2dsZS5lc4ILKi5nb29n
bGUuZnKCCyouZ29vZ2xlLmh1ggsqLmdvb2dsZS5pdIILKi5nb29nbGUubmyCCyou
Z29vZ2xlLnBsggsqLmdvb2dsZS5wdIISKi5nb29nbGVhZGFwaXMuY29tgg8qLmdv
b2dsZWFwaXMuY26CFCouZ29vZ2xlY29tbWVyY2UuY29tghEqLmdvb2dsZXZpZGVv
LmNvbYIMKi5nc3RhdGljLmNugg0qLmdzdGF0aWMuY29tggoqLmd2dDEuY29tggoq
Lmd2dDIuY29tghQqLm1ldHJpYy5nc3RhdGljLmNvbYIMKi51cmNoaW4uY29tghAq
LnVybC5nb29nbGUuY29tghYqLnlvdXR1YmUtbm9jb29raWUuY29tgg0qLnlvdXR1
YmUuY29tghYqLnlvdXR1YmVlZHVjYXRpb24uY29tggsqLnl0aW1nLmNvbYILYW5k
cm9pZC5jb22CBGcuY2+CBmdvby5nbIIUZ29vZ2xlLWFuYWx5dGljcy5jb22CCmdv
b2dsZS5jb22CEmdvb2dsZWNvbW1lcmNlLmNvbYIKdXJjaGluLmNvbYIIeW91dHUu
YmWCC3lvdXR1YmUuY29tghR5b3V0dWJlZWR1Y2F0aW9uLmNvbTALBgNVHQ8EBAMC
B4AwaAYIKwYBBQUHAQEEXDBaMCsGCCsGAQUFBzAChh9odHRwOi8vcGtpLmdvb2ds
ZS5jb20vR0lBRzIuY3J0MCsGCCsGAQUFBzABhh9odHRwOi8vY2xpZW50czEuZ29v
Z2xlLmNvbS9vY3NwMB0GA1UdDgQWBBSyBfAORdwc4cB1exL5EUM594fonjAMBgNV
HRMBAf8EAjAAMB8GA1UdIwQYMBaAFErdBhYbvPZotXb1gba7Yhq6WoEvMBcGA1Ud
IAQQMA4wDAYKKwYBBAHWeQIFATAwBgNVHR8EKTAnMCWgI6Ahhh9odHRwOi8vcGtp
Lmdvb2dsZS5jb20vR0lBRzIuY3JsMA0GCSqGSIb3DQEBBQUAA4IBAQAlmskEQW8n
Q1mwePNHNz9uEwnQSyRg3QWViNcis5qvQxT/3s/G9DlaMgLPlOgL4vmn620hlcxw
AKmAgcyscJBMoyaWjZwS3l3/twXdrVnnAynUfdpZ+qSa091fTxXPutfPDyZCY5Co
xthH9+wue+M6rh1O9pVaklVgJ9C0NbOAoUVuDqQMI3LbtZuKPt1vlqc2c8pI2Kl+
wY4jDlsKUrtkznz8R1K+Fu017h8vTYZ7GdIM+TB5Mjo8TSD/mjN/GlUn5cS40wd+
1YWOfA0VRNa2EvHFEI+zyXt1SRGaJ4BWqz9UXb5kr7VNGfNXct9c7LUGxh+rfQhD
r6FTInKTEQY2
-----END CERTIFICATE-----
