Certificate:
    Data:
        Version: 3 (0x2)
        Serial Number: 4421890375906186411 (0x3d5db5de639b54ab)
    Signature Algorithm: sha1WithRSAEncryption
        Issuer: C=US, O=Google Inc, CN=Google Internet Authority G2
        Validity
            Not Before: Jun  3 09:57:35 2015 GMT
            Not After : Sep  1 00:00:00 2015 GMT
        Subject: C=US, ST=California, L=Mountain View, O=Google Inc, CN=*.g.doubleclick.net
        Subject Public Key Info:
            Public Key Algorithm: rsaEncryption
                Public-Key: (2048 bit)
                Modulus:
                    00:96:31:d6:9c:41:61:b2:a5:d4:d2:02:9e:db:21:
                    7c:7c:e7:14:14:ec:95:ee:13:91:8c:52:ec:75:1d:
                    9f:71:e3:4e:1f:86:f7:db:41:76:de:29:fb:3a:93:
                    56:18:47:40:c1:8c:d8:fd:92:39:18:7a:07:d4:ae:
                    ae:fa:8b:bc:51:d3:24:41:71:8e:64:c8:b2:91:0a:
                    76:78:30:e5:1d:7e:3f:f3:45:45:ae:70:ef:ff:72:
                    4e:58:f2:cf:ec:c7:60:2a:4f:50:8e:fc:ca:a3:7c:
                    05:e6:e0:72:61:d9:f0:97:9b:53:d8:42:3a:02:6d:
                    e4:e3:30:f5:96:2f:47:65:77:6d:af:7a:2a:25:8a:
                    46:58:46:81:8e:f8:b5:d9:7f:29:68:fd:1f:e5:30:
                    ab:5d:ac:96:dc:72:b0:c8:99:ba:d4:9a:de:79:bd:
                    1d:a6:1e:9a:0c:ff:78:1f:a9:f0:40:d3:5e:02:4b:
                    2f:93:16:a3:cd:dd:4d:0d:ac:57:d1:2e:60:bb:57:
                    6f:7c:3a:33:85:4c:d0:66:c7:25:c2:e6:a5:5b:0b:
                    ea:7f:2e:3d:62:74:75:78:20:ba:60:1c:db:ac:75:
                    34:6a:10:68:09:65:0a:43:36:cc:a6:a1:8e:6f:84:
                    62:69:8e:c3:07:e8:c9:72:37:ee:e7:38:57:b5:43:
                    c3:e5
                Exponent: 65537 (0x10001)
        X509v3 extensions:
            X509v3 Extended Key Usage: 
                TLS Web Server Authentication, TLS Web Client Authentication
            X509v3 Subject Alternative Name: 
                DNS:*.g.doubleclick.net, DNS:*.googleadservices.com, DNS:*.googlesyndication.com, DNS:*.googletagservices.com, DNS:*.invitemedia.com, DNS:g.doubleclick.net, DNS:googleadservices.com, DNS:googlesyndication.com, DNS:googletagservices.com, DNS:media.admob.com
            Authority Information Access: 
                CA Issuers - URI:http://pki.google.com/GIAG2.crt
                OCSP - URI:http://clients1.google.com/ocsp

            X509v3 Subject Key Identifier: 
                6C:09:B7:70:25:58:4B:22:E7:A4:BD:37:19:28:FE:87:7A:9C:29:3B
            X509v3 Basic Constraints: critical
                CA:FALSE
            X509v3 Authority Key Identifier: 
                keyid:4A:DD:06:16:1B:BC:F6:68:B5:76:F5:81:B6:BB:62:1A:BA:5A:81:2F

            X509v3 Certificate Policies: 
                Policy: 1.3.6.1.4.1.11129.2.5.1

            X509v3 CRL Distribution Points: 

                Full Name:
                  URI:http://pki.google.com/GIAG2.crl

    Signature Algorithm: sha1WithRSAEncryption
         41:66:51:70:16:88:48:0d:c9:c0:85:a2:12:9d:75:20:46:0e:
         9b:a1:42:d7:87:e0:a9:39:5f:cd:cb:c2:17:bf:9e:e3:40:d4:
         10:ee:7e:f3:fd:2e:7e:69:a3:45:38:09:fd:06:05:73:7b:09:
         22:62:35:44:05:7b:66:7f:a5:f1:80:b9:26:73:07:c1:5a:56:
         b0:96:bb:38:b4:a0:5b:7a:25:c8:5b:d9:56:a5:5d:75:a7:75:
         3b:af:2e:e7:2c:51:09:27:cb:f4:b2:18:da:8e:6e:50:ff:c2:
         bf:6b:84:63:75:c2:44:87:1c:f2:6b:f2:3e:76:32:56:72:8e:
         1a:d5:a2:5b:d7:b4:aa:1a:02:74:29:72:d1:df:e0:02:7d:50:
         59:2a:3f:ae:79:40:93:8a:ff:f0:02:85:ff:64:df:62:27:ee:
         db:14:9b:e9:c1:80:01:20:8b:ae:b0:1f:16:3f:4a:c1:c2:f9:
         6c:8d:f1:63:a8:15:d8:60:88:8f:3e:82:17:71:28:07:fb:f3:
         77:99:d1:a8:59:64:14:ef:ea:af:fc:6b:d2:ec:31:12:02:35:
         41:42:ff:b7:20:45:6d:e8:e2:0c:91:f9:be:37:6c:16:25:c7:
         2a:83:7b:8d:39:50:5e:fc:cf:c5:c2:b0:af:13:86:47:a9:f6:
         05:92:9f:8c
-----BEGIN CERTIFICATE-----
MIIFSDCCBDCgAwIBAgIIPV213mObVKswDQYJKoZIhvcNAQEFBQAwSTELMAkGA1UE
BhMCVVMxEzARBgNVBAoTCkdvb2dsZSBJbmMxJTAjBgNVBAMTHEdvb2dsZSBJbnRl
cm5ldCBBdXRob3JpdHkgRzIwHhcNMTUwNjAzMDk1NzM1WhcNMTUwOTAxMDAwMDAw
WjBtMQswCQYDVQQGEwJVUzETMBEGA1UECAwKQ2FsaWZvcm5pYTEWMBQGA1UEBwwN
TW91bnRhaW4gVmlldzETMBEGA1UECgwKR29vZ2xlIEluYzEcMBoGA1UEAwwTKi5n
LmRvdWJsZWNsaWNrLm5ldDCCASIwDQYJKoZIhvcNAQEBBQADggEPADCCAQoCggEB
AJYx1pxBYbKl1NICntshfHznFBTsle4TkYxS7HUdn3HjTh+G99tBdt4p+zqTVhhH
QMGM2P2SORh6B9SurvqLvFHTJEFxjmTIspEKdngw5R1+P/NFRa5w7/9yTljyz+zH
YCpPUI78yqN8BebgcmHZ8JebU9hCOgJt5OMw9ZYvR2V3ba96KiWKRlhGgY74tdl/
KWj9H+Uwq12sltxysMiZutSa3nm9HaYemgz/eB+p8EDTXgJLL5MWo83dTQ2sV9Eu
YLtXb3w6M4VM0GbHJcLmpVsL6n8uPWJ0dXggumAc26x1NGoQaAllCkM2zKahjm+E
YmmOwwfoyXI37uc4V7VDw+UCAwEAAaOCAg4wggIKMB0GA1UdJQQWMBQGCCsGAQUF
BwMBBggrBgEFBQcDAjCB5QYDVR0RBIHdMIHaghMqLmcuZG91YmxlY2xpY2submV0
ghYqLmdvb2dsZWFkc2VydmljZXMuY29tghcqLmdvb2dsZXN5bmRpY2F0aW9uLmNv
bYIXKi5nb29nbGV0YWdzZXJ2aWNlcy5jb22CESouaW52aXRlbWVkaWEuY29tghFn
LmRvdWJsZWNsaWNrLm5ldIIUZ29vZ2xlYWRzZXJ2aWNlcy5jb22CFWdvb2dsZXN5
bmRpY2F0aW9uLmNvbYIVZ29vZ2xldGFnc2VydmljZXMuY29tgg9tZWRpYS5hZG1v
Yi5jb20waAYIKwYBBQUHAQEEXDBaMCsGCCsGAQUFBzAChh9odHRwOi8vcGtpLmdv
b2dsZS5jb20vR0lBRzIuY3J0MCsGCCsGAQUFBzABhh9odHRwOi8vY2xpZW50czEu
Z29vZ2xlLmNvbS9vY3NwMB0GA1UdDgQWBBRsCbdwJVhLIuekvTcZKP6HepwpOzAM
BgNVHRMBAf8EAjAAMB8GA1UdIwQYMBaAFErdBhYbvPZotXb1gba7Yhq6WoEvMBcG
A1UdIAQQMA4wDAYKKwYBBAHWeQIFATAwBgNVHR8EKTAnMCWgI6Ahhh9odHRwOi8v
cGtpLmdvb2dsZS5jb20vR0lBRzIuY3JsMA0GCSqGSIb3DQEBBQUAA4IBAQBBZlFw
FohIDcnAhaISnXUgRg6boULXh+CpOV/Ny8IXv57jQNQQ7n7z/S5+aaNFOAn9BgVz
ewkiYjVEBXtmf6XxgLkmcwfBWlawlrs4tKBbeiXIW9lWpV11p3U7ry7nLFEJJ8v0
shjajm5Q/8K/a4RjdcJEhxzya/I+djJWco4a1aJb17SqGgJ0KXLR3+ACfVBZKj+u
eUCTiv/wAoX/ZN9iJ+7bFJvpwYABIIuusB8WP0rBwvlsjfFjqBXYYIiPPoIXcSgH
+/N3mdGoWWQU7+qv/GvS7DESAjVBQv+3IEVt6OIMkfm+N2wWJccqg3uNOVBe/M/F
wrCvE4ZHqfYFkp+M
-----END CERTIFICATE-----
