Fingerprint (SHA-1) 3209CC3CE4F1C22AB64B2E4284100B0022AD2739
Fingerprint (MD5) 89007E20A67EEA4562770B25220E1257

Certificate:
    Data:
        Version: 3 (0x2)
        Serial Number: 120038506 (0x727a46a)
    Signature Algorithm: sha1WithRSAEncryption
        Issuer: C=IE, O=Baltimore, OU=CyberTrust, CN=Baltimore CyberTrust Root
        Validity
            Not Before: Apr  2 14:32:45 2014 GMT
            Not After : Apr  2 14:31:39 2021 GMT
        Subject: C=NL, L=Amsterdam, O=Verizon Enterprise Solutions, OU=Cybertrust, CN=Verizon Akamai SureServer CA G14-SHA1
        Subject Public Key Info:
            Public Key Algorithm: rsaEncryption
                Public-Key: (2048 bit)
                Modulus:
                    00:91:eb:2d:35:9b:0c:64:6c:ca:8b:2d:d5:39:b6:
                    33:b4:fc:49:0a:16:78:d7:a8:3d:37:10:02:76:db:
                    d7:db:4f:9c:56:4b:a1:69:b4:4b:2d:4a:e3:43:f6:
                    6f:16:08:b5:ef:74:45:8f:74:56:16:2b:15:a5:16:
                    4c:7d:6f:0a:99:b4:20:e7:8a:7b:9c:46:e9:ae:31:
                    fb:13:4f:f0:97:16:61:e3:ba:2b:a5:24:d8:dc:4b:
                    96:c1:be:d3:ab:bf:66:d8:44:26:f9:16:96:ed:9c:
                    36:2c:df:29:34:2a:b5:3d:13:d2:b1:41:2d:53:93:
                    cb:b5:74:28:06:f4:63:8d:5e:de:b2:a8:1b:d7:7d:
                    4f:24:66:33:ed:c6:8a:b0:84:6e:c6:09:5a:96:28:
                    06:8c:e4:51:cb:a1:c5:4b:bb:df:44:3f:0a:5a:c3:
                    56:11:8b:f5:3c:95:db:09:7b:d6:34:88:51:a2:fd:
                    4b:aa:49:14:77:a9:b1:24:ab:25:4f:62:9c:b9:f9:
                    c9:07:2d:10:c8:70:b7:18:b1:56:32:1d:3f:a9:82:
                    52:a7:b0:b2:61:24:6a:5f:8c:74:f6:2c:78:2c:20:
                    59:70:0b:76:ce:fc:50:ad:52:eb:9c:a2:45:36:9a:
                    8b:81:1b:4d:ff:4c:76:9b:de:29:ec:f5:bd:e6:08:
                    5e:eb
                Exponent: 65537 (0x10001)
        X509v3 extensions:
            X509v3 Basic Constraints: critical
                CA:TRUE, pathlen:2
            X509v3 Certificate Policies: 
                Policy: 1.3.6.1.4.1.6334.1.50
                  CPS: https://secure.omniroot.com/repository

            Authority Information Access: 
                OCSP - URI:http://ocsp.omniroot.com/baltimoreroot
                CA Issuers - URI:https://cacert.omniroot.com/baltimoreroot.crt
                CA Issuers - URI:https://cacert.omniroot.com/baltimoreroot.der

            X509v3 Key Usage: critical
                Digital Signature, Non Repudiation, Certificate Sign, CRL Sign
            X509v3 Authority Key Identifier: 
                keyid:E5:9D:59:30:82:47:58:CC:AC:FA:08:54:36:86:7B:3A:B5:04:4D:F0

            X509v3 CRL Distribution Points: 

                Full Name:
                  URI:http://cdp1.public-trust.com/CRL/Omniroot2025.crl

            X509v3 Subject Key Identifier: 
                DD:6C:80:7C:BA:B5:32:17:A5:84:41:40:F0:D2:04:66:13:2F:A9:90
    Signature Algorithm: sha1WithRSAEncryption
         58:41:22:ff:4d:42:55:ae:c8:06:87:45:3f:8b:59:d3:07:39:
         9a:b2:a0:91:81:d2:0c:c1:67:4f:4f:71:28:5a:90:1c:69:3a:
         9a:f6:9b:c0:08:f4:5a:22:89:55:df:6f:af:45:b8:a2:13:79:
         18:b5:aa:d3:c2:fe:cb:70:73:85:25:5b:d5:cc:6f:06:90:a9:
         d8:af:76:8e:74:07:50:83:10:4d:1d:79:30:96:d9:e9:02:1f:
         e3:21:d6:ec:d2:3c:30:2c:b5:53:c9:12:a7:f2:c3:63:ee:f6:
         ab:fb:e0:7b:85:fd:84:d6:5b:57:50:38:f4:d3:19:29:3e:11:
         f0:66:40:e4:9f:c1:bb:f0:6c:e2:6f:24:3e:a6:6b:37:21:f5:
         27:bb:a7:02:22:b9:fc:43:da:ed:13:0f:e7:83:36:55:91:7a:
         00:1c:d6:f8:19:6c:3a:0f:44:73:93:95:ca:01:d6:e6:5f:85:
         47:1a:27:7e:05:12:34:9d:48:cd:97:04:84:3a:75:fa:76:14:
         98:5d:a8:69:6b:d9:f6:ed:d1:c6:ca:1f:1d:c3:62:a9:c5:f0:
         31:4d:33:6f:8b:26:91:4b:40:0d:f1:e7:d0:a7:3b:8f:a7:32:
         9d:de:9d:a9:71:10:df:f4:47:4c:c7:2d:a9:21:34:8e:e9:0b:
         6f:39:f1:c9
-----BEGIN CERTIFICATE-----
MIIFHzCCBAegAwIBAgIEByekajANBgkqhkiG9w0BAQUFADBaMQswCQYDVQQGEwJJ
RTESMBAGA1UEChMJQmFsdGltb3JlMRMwEQYDVQQLEwpDeWJlclRydXN0MSIwIAYD
VQQDExlCYWx0aW1vcmUgQ3liZXJUcnVzdCBSb290MB4XDTE0MDQwMjE0MzI0NVoX
DTIxMDQwMjE0MzEzOVowgY0xCzAJBgNVBAYTAk5MMRIwEAYDVQQHEwlBbXN0ZXJk
YW0xJTAjBgNVBAoTHFZlcml6b24gRW50ZXJwcmlzZSBTb2x1dGlvbnMxEzARBgNV
BAsTCkN5YmVydHJ1c3QxLjAsBgNVBAMTJVZlcml6b24gQWthbWFpIFN1cmVTZXJ2
ZXIgQ0EgRzE0LVNIQTEwggEiMA0GCSqGSIb3DQEBAQUAA4IBDwAwggEKAoIBAQCR
6y01mwxkbMqLLdU5tjO0/EkKFnjXqD03EAJ229fbT5xWS6FptEstSuND9m8WCLXv
dEWPdFYWKxWlFkx9bwqZtCDninucRumuMfsTT/CXFmHjuiulJNjcS5bBvtOrv2bY
RCb5FpbtnDYs3yk0KrU9E9KxQS1Tk8u1dCgG9GONXt6yqBvXfU8kZjPtxoqwhG7G
CVqWKAaM5FHLocVLu99EPwpaw1YRi/U8ldsJe9Y0iFGi/UuqSRR3qbEkqyVPYpy5
+ckHLRDIcLcYsVYyHT+pglKnsLJhJGpfjHT2LHgsIFlwC3bO/FCtUuucokU2mouB
G03/THab3ins9b3mCF7rAgMBAAGjggG3MIIBszASBgNVHRMBAf8ECDAGAQH/AgEC
MEwGA1UdIARFMEMwQQYJKwYBBAGxPgEyMDQwMgYIKwYBBQUHAgEWJmh0dHBzOi8v
c2VjdXJlLm9tbmlyb290LmNvbS9yZXBvc2l0b3J5MIG6BggrBgEFBQcBAQSBrTCB
qjAyBggrBgEFBQcwAYYmaHR0cDovL29jc3Aub21uaXJvb3QuY29tL2JhbHRpbW9y
ZXJvb3QwOQYIKwYBBQUHMAKGLWh0dHBzOi8vY2FjZXJ0Lm9tbmlyb290LmNvbS9i
YWx0aW1vcmVyb290LmNydDA5BggrBgEFBQcwAoYtaHR0cHM6Ly9jYWNlcnQub21u
aXJvb3QuY29tL2JhbHRpbW9yZXJvb3QuZGVyMA4GA1UdDwEB/wQEAwIBxjAfBgNV
HSMEGDAWgBTlnVkwgkdYzKz6CFQ2hns6tQRN8DBCBgNVHR8EOzA5MDegNaAzhjFo
dHRwOi8vY2RwMS5wdWJsaWMtdHJ1c3QuY29tL0NSTC9PbW5pcm9vdDIwMjUuY3Js
MB0GA1UdDgQWBBTdbIB8urUyF6WEQUDw0gRmEy+pkDANBgkqhkiG9w0BAQUFAAOC
AQEAWEEi/01CVa7IBodFP4tZ0wc5mrKgkYHSDMFnT09xKFqQHGk6mvabwAj0WiKJ
Vd9vr0W4ohN5GLWq08L+y3BzhSVb1cxvBpCp2K92jnQHUIMQTR15MJbZ6QIf4yHW
7NI8MCy1U8kSp/LDY+72q/vge4X9hNZbV1A49NMZKT4R8GZA5J/Bu/Bs4m8kPqZr
NyH1J7unAiK5/EPa7RMP54M2VZF6ABzW+BlsOg9Ec5OVygHW5l+FRxonfgUSNJ1I
zZcEhDp1+nYUmF2oaWvZ9u3RxsofHcNiqcXwMU0zb4smkUtADfHn0Kc7j6cynd6d
qXEQ3/RHTMctqSE0jukLbznxyQ==
-----END CERTIFICATE-----
